target datalayout = "e-m:e-p270:32:32-p271:32:32-p272:64:64-i64:64-i128:128-f80:128-n8:16:32:64-S128"
target triple = "x86_64-pc-linux-gnu"

@.str.1 = private unnamed_addr constant [33 x i8] c"../openssl/test/asn1_time_test.c\00", align 1
@.str.16 = private unnamed_addr constant [2 x i8] c"0\00", align 1
@.str.120 = private unnamed_addr constant [16 x i8] c"Internal error.\00", align 1
@.str.121 = private unnamed_addr constant [14 x i8] c"asn1_time_dup\00", align 1
@.str.122 = private unnamed_addr constant [5 x i8] c"NULL\00", align 1
@.str.123 = private unnamed_addr constant [24 x i8] c"ASN1_TIME_dup() failed.\00", align 1
@.str.124 = private unnamed_addr constant [44 x i8] c"ASN1_TIME_compare(asn1_time, asn1_time_dup)\00", align 1
@.str.125 = private unnamed_addr constant [48 x i8] c"ASN1_TIME_dup() duplicated non-identical value.\00", align 1
@.str.126 = private unnamed_addr constant [27 x i8] c"ASN1_UTCTIME_dup() failed.\00", align 1
@.str.127 = private unnamed_addr constant [59 x i8] c"ASN1_UTCTIME_dup() duplicated non-identical UTCTIME value.\00", align 1
@.str.128 = private unnamed_addr constant [35 x i8] c"ASN1_GENERALIZEDTIME_dup() failed.\00", align 1
@.str.129 = private unnamed_addr constant [47 x i8] c"ASN1_TIME_compare(asn1_gentime, asn1_time_dup)\00", align 1
@.str.130 = private unnamed_addr constant [55 x i8] c"ASN1_GENERALIZEDTIME_dup() dup'ed non-identical value.\00", align 1

; Function Attrs: nounwind uwtable
define internal i32 @test_time_dup() #0 {
  %1 = alloca i32, align 4
  %2 = alloca ptr, align 8
  %3 = alloca ptr, align 8
  %4 = alloca ptr, align 8
  call void @llvm.lifetime.start.p0(i64 4, ptr %1) #5
  store i32 0, ptr %1, align 4, !tbaa !11
  call void @llvm.lifetime.start.p0(i64 8, ptr %2) #5
  store ptr null, ptr %2, align 8, !tbaa !19
  call void @llvm.lifetime.start.p0(i64 8, ptr %3) #5
  store ptr null, ptr %3, align 8, !tbaa !19
  call void @llvm.lifetime.start.p0(i64 8, ptr %4) #5
  store ptr null, ptr %4, align 8, !tbaa !19
  %5 = call i64 @time(ptr noundef null) #5
  %6 = call ptr @ASN1_TIME_adj(ptr noundef null, i64 noundef %5, i32 noundef 0, i64 noundef 0)
  store ptr %6, ptr %2, align 8, !tbaa !19
  %7 = load ptr, ptr %2, align 8, !tbaa !19
  %8 = icmp eq ptr %7, null
  br i1 %8, label %9, label %10

9:                                                ; preds = %0
  call void (ptr, i32, ptr, ...) @test_info(ptr noundef @.str.1, i32 noundef 383, ptr noundef @.str.120)
  br label %61

10:                                               ; preds = %0
  %11 = load ptr, ptr %2, align 8, !tbaa !19
  %12 = call ptr @ASN1_TIME_to_generalizedtime(ptr noundef %11, ptr noundef null)
  store ptr %12, ptr %4, align 8, !tbaa !19
  %13 = load ptr, ptr %4, align 8, !tbaa !19
  %14 = icmp eq ptr %13, null
  br i1 %14, label %15, label %16

15:                                               ; preds = %10
  call void (ptr, i32, ptr, ...) @test_info(ptr noundef @.str.1, i32 noundef 389, ptr noundef @.str.120)
  br label %61

16:                                               ; preds = %10
  %17 = load ptr, ptr %2, align 8, !tbaa !19
  %18 = call ptr @ASN1_TIME_dup(ptr noundef %17)
  store ptr %18, ptr %3, align 8, !tbaa !19
  %19 = load ptr, ptr %3, align 8, !tbaa !19
  %20 = call i32 @test_ptr_ne(ptr noundef @.str.1, i32 noundef 394, ptr noundef @.str.121, ptr noundef @.str.122, ptr noundef %19, ptr noundef null)
  %21 = icmp ne i32 %20, 0
  br i1 %21, label %23, label %22

22:                                               ; preds = %16
  call void (ptr, i32, ptr, ...) @test_info(ptr noundef @.str.1, i32 noundef 395, ptr noundef @.str.123)
  br label %61

23:                                               ; preds = %16
  %24 = load ptr, ptr %2, align 8, !tbaa !19
  %25 = load ptr, ptr %3, align 8, !tbaa !19
  %26 = call i32 @ASN1_TIME_compare(ptr noundef %24, ptr noundef %25)
  %27 = call i32 @test_int_eq(ptr noundef @.str.1, i32 noundef 398, ptr noundef @.str.124, ptr noundef @.str.16, i32 noundef %26, i32 noundef 0)
  %28 = icmp ne i32 %27, 0
  br i1 %28, label %30, label %29

29:                                               ; preds = %23
  call void (ptr, i32, ptr, ...) @test_info(ptr noundef @.str.1, i32 noundef 399, ptr noundef @.str.125)
  br label %61

30:                                               ; preds = %23
  %31 = load ptr, ptr %3, align 8, !tbaa !19
  call void @ASN1_STRING_free(ptr noundef %31)
  %32 = load ptr, ptr %2, align 8, !tbaa !19
  %33 = call ptr @ASN1_UTCTIME_dup(ptr noundef %32)
  store ptr %33, ptr %3, align 8, !tbaa !19
  %34 = load ptr, ptr %3, align 8, !tbaa !19
  %35 = call i32 @test_ptr_ne(ptr noundef @.str.1, i32 noundef 405, ptr noundef @.str.121, ptr noundef @.str.122, ptr noundef %34, ptr noundef null)
  %36 = icmp ne i32 %35, 0
  br i1 %36, label %38, label %37

37:                                               ; preds = %30
  call void (ptr, i32, ptr, ...) @test_info(ptr noundef @.str.1, i32 noundef 406, ptr noundef @.str.126)
  br label %61

38:                                               ; preds = %30
  %39 = load ptr, ptr %2, align 8, !tbaa !19
  %40 = load ptr, ptr %3, align 8, !tbaa !19
  %41 = call i32 @ASN1_TIME_compare(ptr noundef %39, ptr noundef %40)
  %42 = call i32 @test_int_eq(ptr noundef @.str.1, i32 noundef 409, ptr noundef @.str.124, ptr noundef @.str.16, i32 noundef %41, i32 noundef 0)
  %43 = icmp ne i32 %42, 0
  br i1 %43, label %45, label %44

44:                                               ; preds = %38
  call void (ptr, i32, ptr, ...) @test_info(ptr noundef @.str.1, i32 noundef 410, ptr noundef @.str.127)
  br label %61

45:                                               ; preds = %38
  %46 = load ptr, ptr %3, align 8, !tbaa !19
  call void @ASN1_STRING_free(ptr noundef %46)
  %47 = load ptr, ptr %4, align 8, !tbaa !19
  %48 = call ptr @ASN1_GENERALIZEDTIME_dup(ptr noundef %47)
  store ptr %48, ptr %3, align 8, !tbaa !19
  %49 = load ptr, ptr %3, align 8, !tbaa !19
  %50 = call i32 @test_ptr_ne(ptr noundef @.str.1, i32 noundef 416, ptr noundef @.str.121, ptr noundef @.str.122, ptr noundef %49, ptr noundef null)
  %51 = icmp ne i32 %50, 0
  br i1 %51, label %53, label %52

52:                                               ; preds = %45
  call void (ptr, i32, ptr, ...) @test_info(ptr noundef @.str.1, i32 noundef 417, ptr noundef @.str.128)
  br label %61

53:                                               ; preds = %45
  %54 = load ptr, ptr %4, align 8, !tbaa !19
  %55 = load ptr, ptr %3, align 8, !tbaa !19
  %56 = call i32 @ASN1_TIME_compare(ptr noundef %54, ptr noundef %55)
  %57 = call i32 @test_int_eq(ptr noundef @.str.1, i32 noundef 420, ptr noundef @.str.129, ptr noundef @.str.16, i32 noundef %56, i32 noundef 0)
  %58 = icmp ne i32 %57, 0
  br i1 %58, label %60, label %59

59:                                               ; preds = %53
  call void (ptr, i32, ptr, ...) @test_info(ptr noundef @.str.1, i32 noundef 421, ptr noundef @.str.130)
  br label %61

60:                                               ; preds = %53
  store i32 1, ptr %1, align 4, !tbaa !11
  br label %61

61:                                               ; preds = %60, %59, %52, %44, %37, %29, %22, %15, %9
  %62 = load ptr, ptr %2, align 8, !tbaa !19
  call void @ASN1_STRING_free(ptr noundef %62)
  %63 = load ptr, ptr %4, align 8, !tbaa !19
  call void @ASN1_STRING_free(ptr noundef %63)
  %64 = load ptr, ptr %3, align 8, !tbaa !19
  call void @ASN1_STRING_free(ptr noundef %64)
  %65 = load i32, ptr %1, align 4, !tbaa !11
  call void @llvm.lifetime.end.p0(i64 8, ptr %4) #5
  call void @llvm.lifetime.end.p0(i64 8, ptr %3) #5
  call void @llvm.lifetime.end.p0(i64 8, ptr %2) #5
  call void @llvm.lifetime.end.p0(i64 4, ptr %1) #5
  ret i32 %65
}