; Function Attrs: nounwind uwtable
define internal range(i32 0, 2) i32 @test_time_dup() #0 {
  %1 = tail call i64 @time(ptr noundef null) #5
  %2 = tail call ptr @ASN1_TIME_adj(ptr noundef null, i64 noundef %1, i32 noundef 0, i64 noundef 0) #5
  %3 = icmp eq ptr %2, null
  br i1 %3, label %4, label %5

4:                                                ; preds = %0
  tail call void (ptr, i32, ptr, ...) @test_info(ptr noundef nonnull @.str.1, i32 noundef 383, ptr noundef nonnull @.str.120) #5
  br label %33

5:                                                ; preds = %0
  %6 = tail call ptr @ASN1_TIME_to_generalizedtime(ptr noundef nonnull %2, ptr noundef null) #5
  %7 = icmp eq ptr %6, null
  br i1 %7, label %8, label %9

8:                                                ; preds = %5
  tail call void (ptr, i32, ptr, ...) @test_info(ptr noundef nonnull @.str.1, i32 noundef 389, ptr noundef nonnull @.str.120) #5
  br label %33

9:                                                ; preds = %5
  %10 = tail call ptr @ASN1_TIME_dup(ptr noundef nonnull %2) #5
  %11 = tail call i32 @test_ptr_ne(ptr noundef nonnull @.str.1, i32 noundef 394, ptr noundef nonnull @.str.121, ptr noundef nonnull @.str.122, ptr noundef %10, ptr noundef null) #5
  %.not = icmp eq i32 %11, 0
  br i1 %.not, label %12, label %13

12:                                               ; preds = %9
  tail call void (ptr, i32, ptr, ...) @test_info(ptr noundef nonnull @.str.1, i32 noundef 395, ptr noundef nonnull @.str.123) #5
  br label %33

13:                                               ; preds = %9
  %14 = tail call i32 @ASN1_TIME_compare(ptr noundef nonnull %2, ptr noundef %10) #5
  %15 = tail call i32 @test_int_eq(ptr noundef nonnull @.str.1, i32 noundef 398, ptr noundef nonnull @.str.124, ptr noundef nonnull @.str.16, i32 noundef %14, i32 noundef 0) #5
  %.not24 = icmp eq i32 %15, 0
  br i1 %.not24, label %16, label %17

16:                                               ; preds = %13
  tail call void (ptr, i32, ptr, ...) @test_info(ptr noundef nonnull @.str.1, i32 noundef 399, ptr noundef nonnull @.str.125) #5
  br label %33

17:                                               ; preds = %13
  tail call void @ASN1_STRING_free(ptr noundef %10) #5
  %18 = tail call ptr @ASN1_UTCTIME_dup(ptr noundef nonnull %2) #5
  %19 = tail call i32 @test_ptr_ne(ptr noundef nonnull @.str.1, i32 noundef 405, ptr noundef nonnull @.str.121, ptr noundef nonnull @.str.122, ptr noundef %18, ptr noundef null) #5
  %.not25 = icmp eq i32 %19, 0
  br i1 %.not25, label %20, label %21

20:                                               ; preds = %17
  tail call void (ptr, i32, ptr, ...) @test_info(ptr noundef nonnull @.str.1, i32 noundef 406, ptr noundef nonnull @.str.126) #5
  br label %33

21:                                               ; preds = %17
  %22 = tail call i32 @ASN1_TIME_compare(ptr noundef nonnull %2, ptr noundef %18) #5
  %23 = tail call i32 @test_int_eq(ptr noundef nonnull @.str.1, i32 noundef 409, ptr noundef nonnull @.str.124, ptr noundef nonnull @.str.16, i32 noundef %22, i32 noundef 0) #5
  %.not26 = icmp eq i32 %23, 0
  br i1 %.not26, label %24, label %25

24:                                               ; preds = %21
  tail call void (ptr, i32, ptr, ...) @test_info(ptr noundef nonnull @.str.1, i32 noundef 410, ptr noundef nonnull @.str.127) #5
  br label %33

25:                                               ; preds = %21
  tail call void @ASN1_STRING_free(ptr noundef %18) #5
  %26 = tail call ptr @ASN1_GENERALIZEDTIME_dup(ptr noundef nonnull %6) #5
  %27 = tail call i32 @test_ptr_ne(ptr noundef nonnull @.str.1, i32 noundef 416, ptr noundef nonnull @.str.121, ptr noundef nonnull @.str.122, ptr noundef %26, ptr noundef null) #5
  %.not27 = icmp eq i32 %27, 0
  br i1 %.not27, label %28, label %29

28:                                               ; preds = %25
  tail call void (ptr, i32, ptr, ...) @test_info(ptr noundef nonnull @.str.1, i32 noundef 417, ptr noundef nonnull @.str.128) #5
  br label %33

29:                                               ; preds = %25
  %30 = tail call i32 @ASN1_TIME_compare(ptr noundef nonnull %6, ptr noundef %26) #5
  %31 = tail call i32 @test_int_eq(ptr noundef nonnull @.str.1, i32 noundef 420, ptr noundef nonnull @.str.129, ptr noundef nonnull @.str.16, i32 noundef %30, i32 noundef 0) #5
  %.not28 = icmp eq i32 %31, 0
  br i1 %.not28, label %32, label %33

32:                                               ; preds = %29
  tail call void (ptr, i32, ptr, ...) @test_info(ptr noundef nonnull @.str.1, i32 noundef 421, ptr noundef nonnull @.str.130) #5
  br label %33

33:                                               ; preds = %29, %32, %28, %24, %20, %16, %12, %8, %4
  %.021 = phi i32 [ 0, %4 ], [ 0, %8 ], [ 0, %32 ], [ 0, %28 ], [ 0, %24 ], [ 0, %20 ], [ 0, %16 ], [ 0, %12 ], [ 1, %29 ]
  %.020 = phi ptr [ null, %4 ], [ null, %8 ], [ %26, %32 ], [ %26, %28 ], [ %18, %24 ], [ %18, %20 ], [ %10, %16 ], [ %10, %12 ], [ %26, %29 ]
  %.0 = phi ptr [ null, %4 ], [ null, %8 ], [ %6, %32 ], [ %6, %28 ], [ %6, %24 ], [ %6, %20 ], [ %6, %16 ], [ %6, %12 ], [ %6, %29 ]
  tail call void @ASN1_STRING_free(ptr noundef %2) #5
  tail call void @ASN1_STRING_free(ptr noundef %.0) #5
  tail call void @ASN1_STRING_free(ptr noundef %.020) #5
  ret i32 %.021
}